#include <math.h>
#include <stdio.h>
#include <stdlib.h>
#include <string.h>

int main(){
 int n,i,j,k=1,a[20001],b[20001],f;
 scanf("%d",&n);
 for(i=0;i<n;i++){
     scanf("%d",&a[i]);
     if(i==0) b[0]=a[0];
     f=1;
     for(j=0;j<i;j++){
            if(a[i]==a[j]){
                f=0;
                break;
                }            
            }
     if(f==1){ 
        b[k]=a[i];k++;  
    } 
        } 
    
    for(i=1;i<k-1;i++){
        printf("%d ",b[i]);
        }
    printf("%d",b[k-1]);
    scanf("%d",&n);
    return 0;
    }

